target datalayout = "e-m:e-p270:32:32-p271:32:32-p272:64:64-i64:64-i128:128-f80:128-n8:16:32:64-S128"
target triple = "x86_64-pc-linux-gnu"

%struct._zend_executor_globals = type { %struct._zval_struct, %struct._zval_struct, [32 x ptr], ptr, ptr, %struct._zend_array, %struct._zend_array, ptr, i32, i32, ptr, ptr, ptr, ptr, ptr, ptr, i64, ptr, ptr, i32, i32, i64, i32, i32, i32, i8, i8, %struct.zend_atomic_bool_s, %struct.zend_atomic_bool_s, ptr, i64, ptr, ptr, %struct._zend_array, %struct._zend_array, i32, i8, %struct._zval_struct, %struct._zval_struct, %struct._zend_stack, %struct._zend_stack, %struct._zend_stack, ptr, i32, i32, i64, ptr, ptr, ptr, %struct._zend_objects_store, ptr, ptr, ptr, [3 x %struct._zend_op], ptr, i8, i8, i64, i32, i32, ptr, [16 x %struct._HashTableIterator], ptr, %union._zend_function, %struct._zend_op, %struct._zend_array, i64, %struct.zend_get_gc_buffer, ptr, ptr, ptr, i64, i8, i32, ptr, ptr, i64, %struct._zend_call_stack, i64, i64, [6 x ptr] }
%struct.zend_atomic_bool_s = type { i8 }
%struct._zval_struct = type { %union._zend_value, %union.anon, %union.anon.2 }
%union._zend_value = type { i64 }
%union.anon = type { i32 }
%union.anon.2 = type { i32 }
%struct._zend_stack = type { i32, i32, i32, ptr }
%struct._zend_objects_store = type { ptr, i32, i32, i32 }
%struct._HashTableIterator = type { ptr, i32, i32 }
%union._zend_function = type { %struct._zend_op_array }
%struct._zend_op_array = type { i8, [3 x i8], i32, ptr, ptr, ptr, i32, i32, ptr, ptr, ptr, ptr, i32, i32, i32, i32, ptr, ptr, ptr, ptr, ptr, i32, i32, ptr, ptr, ptr, i32, i32, i32, i32, ptr, ptr, [6 x ptr] }
%struct._zend_op = type { ptr, %union._znode_op, %union._znode_op, %union._znode_op, i32, i32, i8, i8, i8, i8 }
%union._znode_op = type { i32 }
%struct._zend_array = type { %struct._zend_refcounted_h, %union.anon.4, i32, %union.anon.6, i32, i32, i32, i32, i64, ptr }
%struct._zend_refcounted_h = type { i32, %union.anon.3 }
%union.anon.3 = type { i32 }
%union.anon.4 = type { i32 }
%union.anon.6 = type { ptr }
%struct.zend_get_gc_buffer = type { ptr, ptr, ptr }
%struct._zend_call_stack = type { ptr, i64 }
%struct._zend_execute_data = type { ptr, ptr, ptr, ptr, %struct._zval_struct, ptr, ptr, ptr, ptr }
%struct._zend_object = type { %struct._zend_refcounted_h, i32, ptr, ptr, ptr, [1 x %struct._zval_struct] }
%struct._spl_dual_it_object = type { %struct.anon.8, %struct.anon.9, i32, %union.anon.10, %struct._zend_object }
%struct.anon.8 = type { %struct._zval_struct, ptr, ptr, ptr }
%struct.anon.9 = type { %struct._zval_struct, %struct._zval_struct, i64 }
%union.anon.10 = type { %struct.anon.12 }
%struct.anon.12 = type { i64, ptr, %struct._zval_struct, %struct._zval_struct }

@executor_globals = external global %struct._zend_executor_globals, align 8
@.str = private unnamed_addr constant [75 x i8] c"The object is in an invalid state as the parent constructor was not called\00", align 1
@.str.10 = private unnamed_addr constant [2 x i8] c"l\00", align 1
@.str.17 = private unnamed_addr constant [170 x i8] c"must contain only one of CachingIterator::CALL_TOSTRING, CachingIterator::TOSTRING_USE_KEY, CachingIterator::TOSTRING_USE_CURRENT, or CachingIterator::TOSTRING_USE_INNER\00", align 1
@spl_ce_InvalidArgumentException = external global ptr, align 8
@.str.18 = private unnamed_addr constant [46 x i8] c"Unsetting flag CALL_TO_STRING is not possible\00", align 1
@.str.19 = private unnamed_addr constant [50 x i8] c"Unsetting flag TOSTRING_USE_INNER is not possible\00", align 1

; Function Attrs: nounwind uwtable
define internal i32 @spl_cit_check_flags(i64 noundef %0) #0 {
  %2 = alloca i64, align 8
  %3 = alloca i64, align 8
  store i64 %0, ptr %2, align 8
  store i64 0, ptr %3, align 8
  %4 = load i64, ptr %2, align 8
  %5 = and i64 %4, 1
  %6 = icmp ne i64 %5, 0
  %7 = select i1 %6, i32 1, i32 0
  %8 = sext i32 %7 to i64
  %9 = load i64, ptr %3, align 8
  %10 = add nsw i64 %9, %8
  store i64 %10, ptr %3, align 8
  %11 = load i64, ptr %2, align 8
  %12 = and i64 %11, 2
  %13 = icmp ne i64 %12, 0
  %14 = select i1 %13, i32 1, i32 0
  %15 = sext i32 %14 to i64
  %16 = load i64, ptr %3, align 8
  %17 = add nsw i64 %16, %15
  store i64 %17, ptr %3, align 8
  %18 = load i64, ptr %2, align 8
  %19 = and i64 %18, 4
  %20 = icmp ne i64 %19, 0
  %21 = select i1 %20, i32 1, i32 0
  %22 = sext i32 %21 to i64
  %23 = load i64, ptr %3, align 8
  %24 = add nsw i64 %23, %22
  store i64 %24, ptr %3, align 8
  %25 = load i64, ptr %2, align 8
  %26 = and i64 %25, 8
  %27 = icmp ne i64 %26, 0
  %28 = select i1 %27, i32 1, i32 0
  %29 = sext i32 %28 to i64
  %30 = load i64, ptr %3, align 8
  %31 = add nsw i64 %30, %29
  store i64 %31, ptr %3, align 8
  %32 = load i64, ptr %3, align 8
  %33 = icmp sle i64 %32, 1
  %34 = select i1 %33, i32 0, i32 -1
  ret i32 %34
}

; Function Attrs: nounwind uwtable
define internal ptr @spl_dual_it_from_obj(ptr noundef %0) #0 {
  %2 = alloca ptr, align 8
  store ptr %0, ptr %2, align 8
  %3 = load ptr, ptr %2, align 8
  %4 = getelementptr inbounds i8, ptr %3, i64 -136
  ret ptr %4
}

; Function Attrs: nounwind uwtable
define hidden void @zim_CachingIterator_setFlags(ptr noundef %0, ptr noundef %1) #0 {
  %3 = alloca ptr, align 8
  %4 = alloca ptr, align 8
  %5 = alloca ptr, align 8
  %6 = alloca i64, align 8
  %7 = alloca ptr, align 8
  store ptr %0, ptr %3, align 8
  store ptr %1, ptr %4, align 8
  %8 = load ptr, ptr %3, align 8
  %9 = getelementptr inbounds %struct._zend_execute_data, ptr %8, i32 0, i32 4
  %10 = getelementptr inbounds %struct._zval_struct, ptr %9, i32 0, i32 2
  %11 = load i32, ptr %10, align 4
  %12 = call i32 (i32, ptr, ...) @zend_parse_parameters(i32 noundef %11, ptr noundef @.str.10, ptr noundef %6)
  %13 = icmp eq i32 %12, -1
  br i1 %13, label %14, label %19

14:                                               ; preds = %2
  br label %15

15:                                               ; preds = %14
  %16 = load ptr, ptr getelementptr inbounds (%struct._zend_executor_globals, ptr @executor_globals, i32 0, i32 50), align 8
  %17 = icmp ne ptr %16, null
  call void @llvm.assume(i1 %17)
  br label %111

18:                                               ; No predecessors!
  br label %19

19:                                               ; preds = %18, %2
  br label %20

20:                                               ; preds = %19
  %21 = load ptr, ptr %3, align 8
  %22 = getelementptr inbounds %struct._zend_execute_data, ptr %21, i32 0, i32 4
  %23 = getelementptr inbounds %struct._zval_struct, ptr %22, i32 0, i32 0
  %24 = load ptr, ptr %23, align 8
  %25 = call ptr @spl_dual_it_from_obj(ptr noundef %24)
  store ptr %25, ptr %7, align 8
  %26 = load ptr, ptr %7, align 8
  %27 = getelementptr inbounds %struct._spl_dual_it_object, ptr %26, i32 0, i32 2
  %28 = load i32, ptr %27, align 8
  %29 = icmp eq i32 %28, -1
  br i1 %29, label %30, label %35

30:                                               ; preds = %20
  call void (ptr, ptr, ...) @zend_throw_error(ptr noundef null, ptr noundef @.str)
  br label %31

31:                                               ; preds = %30
  %32 = load ptr, ptr getelementptr inbounds (%struct._zend_executor_globals, ptr @executor_globals, i32 0, i32 50), align 8
  %33 = icmp ne ptr %32, null
  call void @llvm.assume(i1 %33)
  br label %111

34:                                               ; No predecessors!
  br label %35

35:                                               ; preds = %34, %20
  %36 = load ptr, ptr %7, align 8
  store ptr %36, ptr %5, align 8
  br label %37

37:                                               ; preds = %35
  %38 = load i64, ptr %6, align 8
  %39 = call i32 @spl_cit_check_flags(i64 noundef %38)
  %40 = icmp ne i32 %39, 0
  br i1 %40, label %41, label %46

41:                                               ; preds = %37
  call void (i32, ptr, ...) @zend_argument_value_error(i32 noundef 1, ptr noundef @.str.17)
  br label %42

42:                                               ; preds = %41
  %43 = load ptr, ptr getelementptr inbounds (%struct._zend_executor_globals, ptr @executor_globals, i32 0, i32 50), align 8
  %44 = icmp ne ptr %43, null
  call void @llvm.assume(i1 %44)
  br label %111

45:                                               ; No predecessors!
  br label %46

46:                                               ; preds = %45, %37
  %47 = load ptr, ptr %5, align 8
  %48 = getelementptr inbounds %struct._spl_dual_it_object, ptr %47, i32 0, i32 3
  %49 = getelementptr inbounds %struct.anon.12, ptr %48, i32 0, i32 0
  %50 = load i64, ptr %49, align 8
  %51 = and i64 %50, 1
  %52 = icmp ne i64 %51, 0
  br i1 %52, label %53, label %64

53:                                               ; preds = %46
  %54 = load i64, ptr %6, align 8
  %55 = and i64 %54, 1
  %56 = icmp eq i64 %55, 0
  br i1 %56, label %57, label %64

57:                                               ; preds = %53
  %58 = load ptr, ptr @spl_ce_InvalidArgumentException, align 8
  %59 = call ptr @zend_throw_exception(ptr noundef %58, ptr noundef @.str.18, i64 noundef 0)
  br label %60

60:                                               ; preds = %57
  %61 = load ptr, ptr getelementptr inbounds (%struct._zend_executor_globals, ptr @executor_globals, i32 0, i32 50), align 8
  %62 = icmp ne ptr %61, null
  call void @llvm.assume(i1 %62)
  br label %111

63:                                               ; No predecessors!
  br label %64

64:                                               ; preds = %63, %53, %46
  %65 = load ptr, ptr %5, align 8
  %66 = getelementptr inbounds %struct._spl_dual_it_object, ptr %65, i32 0, i32 3
  %67 = getelementptr inbounds %struct.anon.12, ptr %66, i32 0, i32 0
  %68 = load i64, ptr %67, align 8
  %69 = and i64 %68, 8
  %70 = icmp ne i64 %69, 0
  br i1 %70, label %71, label %82

71:                                               ; preds = %64
  %72 = load i64, ptr %6, align 8
  %73 = and i64 %72, 8
  %74 = icmp eq i64 %73, 0
  br i1 %74, label %75, label %82

75:                                               ; preds = %71
  %76 = load ptr, ptr @spl_ce_InvalidArgumentException, align 8
  %77 = call ptr @zend_throw_exception(ptr noundef %76, ptr noundef @.str.19, i64 noundef 0)
  br label %78

78:                                               ; preds = %75
  %79 = load ptr, ptr getelementptr inbounds (%struct._zend_executor_globals, ptr @executor_globals, i32 0, i32 50), align 8
  %80 = icmp ne ptr %79, null
  call void @llvm.assume(i1 %80)
  br label %111

81:                                               ; No predecessors!
  br label %82

82:                                               ; preds = %81, %71, %64
  %83 = load i64, ptr %6, align 8
  %84 = and i64 %83, 256
  %85 = icmp ne i64 %84, 0
  br i1 %85, label %86, label %99

86:                                               ; preds = %82
  %87 = load ptr, ptr %5, align 8
  %88 = getelementptr inbounds %struct._spl_dual_it_object, ptr %87, i32 0, i32 3
  %89 = getelementptr inbounds %struct.anon.12, ptr %88, i32 0, i32 0
  %90 = load i64, ptr %89, align 8
  %91 = and i64 %90, 256
  %92 = icmp eq i64 %91, 0
  br i1 %92, label %93, label %99

93:                                               ; preds = %86
  %94 = load ptr, ptr %5, align 8
  %95 = getelementptr inbounds %struct._spl_dual_it_object, ptr %94, i32 0, i32 3
  %96 = getelementptr inbounds %struct.anon.12, ptr %95, i32 0, i32 3
  %97 = getelementptr inbounds %struct._zval_struct, ptr %96, i32 0, i32 0
  %98 = load ptr, ptr %97, align 8
  call void @zend_hash_clean(ptr noundef %98)
  br label %99

99:                                               ; preds = %93, %86, %82
  %100 = load ptr, ptr %5, align 8
  %101 = getelementptr inbounds %struct._spl_dual_it_object, ptr %100, i32 0, i32 3
  %102 = getelementptr inbounds %struct.anon.12, ptr %101, i32 0, i32 0
  %103 = load i64, ptr %102, align 8
  %104 = and i64 %103, -65536
  %105 = load i64, ptr %6, align 8
  %106 = and i64 %105, 65535
  %107 = or i64 %104, %106
  %108 = load ptr, ptr %5, align 8
  %109 = getelementptr inbounds %struct._spl_dual_it_object, ptr %108, i32 0, i32 3
  %110 = getelementptr inbounds %struct.anon.12, ptr %109, i32 0, i32 0
  store i64 %107, ptr %110, align 8
  br label %111

111:                                              ; preds = %99, %78, %60, %42, %31, %15
  ret void
}