; Function Attrs: nounwind uwtable
define hidden void @zim_CachingIterator_setFlags(ptr nocapture noundef readonly %0, ptr nocapture readnone %1) #0 {
  %3 = alloca i64, align 8
  %4 = getelementptr inbounds i8, ptr %0, i64 44
  %5 = load i32, ptr %4, align 4
  %6 = call i32 (i32, ptr, ...) @zend_parse_parameters(i32 noundef %5, ptr noundef nonnull @.str.10, ptr noundef nonnull %3) #10
  %7 = icmp eq i32 %6, -1
  br i1 %7, label %8, label %11

8:                                                ; preds = %2
  %9 = load ptr, ptr getelementptr inbounds (%struct._zend_executor_globals, ptr @executor_globals, i64 0, i32 50), align 8
  %10 = icmp ne ptr %9, null
  call void @llvm.assume(i1 %10)
  br label %68

11:                                               ; preds = %2
  %12 = getelementptr inbounds i8, ptr %0, i64 32
  %13 = load ptr, ptr %12, align 8
  %14 = getelementptr inbounds i8, ptr %13, i64 -56
  %15 = load i32, ptr %14, align 8
  %16 = icmp eq i32 %15, -1
  br i1 %16, label %17, label %20

17:                                               ; preds = %11
  call void (ptr, ptr, ...) @zend_throw_error(ptr noundef null, ptr noundef nonnull @.str) #10
  %18 = load ptr, ptr getelementptr inbounds (%struct._zend_executor_globals, ptr @executor_globals, i64 0, i32 50), align 8
  %19 = icmp ne ptr %18, null
  call void @llvm.assume(i1 %19)
  br label %68

20:                                               ; preds = %11
  %21 = load i64, ptr %3, align 8
  %22 = and i64 %21, 1
  %23 = lshr i64 %21, 1
  %24 = and i64 %23, 1
  %25 = add nuw nsw i64 %24, %22
  %26 = lshr i64 %21, 2
  %27 = and i64 %26, 1
  %28 = add nuw nsw i64 %25, %27
  %29 = lshr i64 %21, 3
  %30 = and i64 %29, 1
  %31 = add nuw nsw i64 %28, %30
  %32 = icmp ult i64 %31, 2
  br i1 %32, label %36, label %33

33:                                               ; preds = %20
  call void (i32, ptr, ...) @zend_argument_value_error(i32 noundef 1, ptr noundef nonnull @.str.17) #10
  %34 = load ptr, ptr getelementptr inbounds (%struct._zend_executor_globals, ptr @executor_globals, i64 0, i32 50), align 8
  %35 = icmp ne ptr %34, null
  call void @llvm.assume(i1 %35)
  br label %68

36:                                               ; preds = %20
  %37 = getelementptr inbounds i8, ptr %13, i64 -48
  %38 = load i64, ptr %37, align 8
  %39 = and i64 %38, 1
  %.not10 = icmp ne i64 %39, 0
  %40 = icmp eq i64 %22, 0
  %or.cond = and i1 %40, %.not10
  br i1 %or.cond, label %41, label %46

41:                                               ; preds = %36
  %42 = load ptr, ptr @spl_ce_InvalidArgumentException, align 8
  %43 = call ptr @zend_throw_exception(ptr noundef %42, ptr noundef nonnull @.str.18, i64 noundef 0) #10
  %44 = load ptr, ptr getelementptr inbounds (%struct._zend_executor_globals, ptr @executor_globals, i64 0, i32 50), align 8
  %45 = icmp ne ptr %44, null
  call void @llvm.assume(i1 %45)
  br label %68

46:                                               ; preds = %36
  %47 = and i64 %38, 8
  %.not11 = icmp ne i64 %47, 0
  %48 = and i64 %21, 8
  %49 = icmp eq i64 %48, 0
  %or.cond14 = and i1 %49, %.not11
  br i1 %or.cond14, label %50, label %55

50:                                               ; preds = %46
  %51 = load ptr, ptr @spl_ce_InvalidArgumentException, align 8
  %52 = call ptr @zend_throw_exception(ptr noundef %51, ptr noundef nonnull @.str.19, i64 noundef 0) #10
  %53 = load ptr, ptr getelementptr inbounds (%struct._zend_executor_globals, ptr @executor_globals, i64 0, i32 50), align 8
  %54 = icmp ne ptr %53, null
  call void @llvm.assume(i1 %54)
  br label %68

55:                                               ; preds = %46
  %56 = and i64 %21, 256
  %.not12 = icmp ne i64 %56, 0
  %57 = and i64 %38, 256
  %58 = icmp eq i64 %57, 0
  %or.cond16 = and i1 %.not12, %58
  br i1 %or.cond16, label %59, label %62

59:                                               ; preds = %55
  %60 = getelementptr inbounds i8, ptr %13, i64 -16
  %61 = load ptr, ptr %60, align 8
  call void @zend_hash_clean(ptr noundef %61) #10
  %.pre = load i64, ptr %37, align 8
  %.pre17 = load i64, ptr %3, align 8
  br label %62

62:                                               ; preds = %59, %55
  %63 = phi i64 [ %.pre17, %59 ], [ %21, %55 ]
  %64 = phi i64 [ %.pre, %59 ], [ %38, %55 ]
  %65 = and i64 %64, -65536
  %66 = and i64 %63, 65535
  %67 = or disjoint i64 %66, %65
  store i64 %67, ptr %37, align 8
  br label %68

68:                                               ; preds = %62, %50, %41, %33, %17, %8
  ret void
}